
./sb:     file format elf32-littleriscv


Disassembly of section .text.init:

80000000 <_start>:
80000000:	0480006f          	jal	x0,80000048 <reset_vector>

80000004 <trap_vector>:
80000004:	34202f73          	csrrs	x30,mcause,x0
80000008:	00800f93          	addi	x31,x0,8
8000000c:	03ff0863          	beq	x30,x31,8000003c <write_tohost>
80000010:	00900f93          	addi	x31,x0,9
80000014:	03ff0463          	beq	x30,x31,8000003c <write_tohost>
80000018:	00b00f93          	addi	x31,x0,11
8000001c:	03ff0063          	beq	x30,x31,8000003c <write_tohost>
80000020:	00000f13          	addi	x30,x0,0
80000024:	000f0463          	beq	x30,x0,8000002c <trap_vector+0x28>
80000028:	000f0067          	jalr	x0,0(x30)
8000002c:	34202f73          	csrrs	x30,mcause,x0
80000030:	000f5463          	bge	x30,x0,80000038 <handle_exception>
80000034:	0040006f          	jal	x0,80000038 <handle_exception>

80000038 <handle_exception>:
80000038:	5391e193          	ori	x3,x3,1337

8000003c <write_tohost>:
8000003c:	00001f17          	auipc	x30,0x1
80000040:	fc3f2223          	sw	x3,-60(x30) # 80001000 <tohost>
80000044:	ff9ff06f          	jal	x0,8000003c <write_tohost>

80000048 <reset_vector>:
80000048:	00000093          	addi	x1,x0,0
8000004c:	00000113          	addi	x2,x0,0
80000050:	00000193          	addi	x3,x0,0
80000054:	00000213          	addi	x4,x0,0
80000058:	00000293          	addi	x5,x0,0
8000005c:	00000313          	addi	x6,x0,0
80000060:	00000393          	addi	x7,x0,0
80000064:	00000413          	addi	x8,x0,0
80000068:	00000493          	addi	x9,x0,0
8000006c:	00000513          	addi	x10,x0,0
80000070:	00000593          	addi	x11,x0,0
80000074:	00000613          	addi	x12,x0,0
80000078:	00000693          	addi	x13,x0,0
8000007c:	00000713          	addi	x14,x0,0
80000080:	00000793          	addi	x15,x0,0
80000084:	00000813          	addi	x16,x0,0
80000088:	00000893          	addi	x17,x0,0
8000008c:	00000913          	addi	x18,x0,0
80000090:	00000993          	addi	x19,x0,0
80000094:	00000a13          	addi	x20,x0,0
80000098:	00000a93          	addi	x21,x0,0
8000009c:	00000b13          	addi	x22,x0,0
800000a0:	00000b93          	addi	x23,x0,0
800000a4:	00000c13          	addi	x24,x0,0
800000a8:	00000c93          	addi	x25,x0,0
800000ac:	00000d13          	addi	x26,x0,0
800000b0:	00000d93          	addi	x27,x0,0
800000b4:	00000e13          	addi	x28,x0,0
800000b8:	00000e93          	addi	x29,x0,0
800000bc:	00000f13          	addi	x30,x0,0
800000c0:	00000f93          	addi	x31,x0,0
800000c4:	f1402573          	csrrs	x10,mhartid,x0
800000c8:	00051063          	bne	x10,x0,800000c8 <reset_vector+0x80>
800000cc:	00000297          	auipc	x5,0x0
800000d0:	01028293          	addi	x5,x5,16 # 800000dc <reset_vector+0x94>
800000d4:	30529073          	csrrw	x0,mtvec,x5
800000d8:	18005073          	csrrwi	x0,satp,0
800000dc:	00000297          	auipc	x5,0x0
800000e0:	02028293          	addi	x5,x5,32 # 800000fc <reset_vector+0xb4>
800000e4:	30529073          	csrrw	x0,mtvec,x5
800000e8:	800002b7          	lui	x5,0x80000
800000ec:	fff28293          	addi	x5,x5,-1 # 7fffffff <_end+0xffffdfef>
800000f0:	3b029073          	csrrw	x0,pmpaddr0,x5
800000f4:	01f00293          	addi	x5,x0,31
800000f8:	3a029073          	csrrw	x0,pmpcfg0,x5
800000fc:	30405073          	csrrwi	x0,mie,0
80000100:	00000297          	auipc	x5,0x0
80000104:	01428293          	addi	x5,x5,20 # 80000114 <reset_vector+0xcc>
80000108:	30529073          	csrrw	x0,mtvec,x5
8000010c:	30205073          	csrrwi	x0,medeleg,0
80000110:	30305073          	csrrwi	x0,mideleg,0
80000114:	00000193          	addi	x3,x0,0
80000118:	00000297          	auipc	x5,0x0
8000011c:	eec28293          	addi	x5,x5,-276 # 80000004 <trap_vector>
80000120:	30529073          	csrrw	x0,mtvec,x5
80000124:	00100513          	addi	x10,x0,1
80000128:	01f51513          	slli	x10,x10,0x1f
8000012c:	00054c63          	blt	x10,x0,80000144 <reset_vector+0xfc>
80000130:	0ff0000f          	fence	iorw,iorw
80000134:	00100193          	addi	x3,x0,1
80000138:	05d00893          	addi	x17,x0,93
8000013c:	00000513          	addi	x10,x0,0
80000140:	00000073          	ecall
80000144:	00000293          	addi	x5,x0,0
80000148:	00028a63          	beq	x5,x0,8000015c <reset_vector+0x114>
8000014c:	10529073          	csrrw	x0,stvec,x5
80000150:	0000b2b7          	lui	x5,0xb
80000154:	10928293          	addi	x5,x5,265 # b109 <_start-0x7fff4ef7>
80000158:	30229073          	csrrw	x0,medeleg,x5
8000015c:	30005073          	csrrwi	x0,mstatus,0
80000160:	00000297          	auipc	x5,0x0
80000164:	01428293          	addi	x5,x5,20 # 80000174 <test_2>
80000168:	34129073          	csrrw	x0,mepc,x5
8000016c:	f1402573          	csrrs	x10,mhartid,x0
80000170:	30200073          	mret

80000174 <test_2>:
80000174:	00002097          	auipc	x1,0x2
80000178:	e8c08093          	addi	x1,x1,-372 # 80002000 <begin_signature>
8000017c:	faa00113          	addi	x2,x0,-86
80000180:	00208023          	sb	x2,0(x1)
80000184:	00008703          	lb	x14,0(x1)
80000188:	faa00393          	addi	x7,x0,-86
8000018c:	00200193          	addi	x3,x0,2
80000190:	3c771c63          	bne	x14,x7,80000568 <fail>

80000194 <test_3>:
80000194:	00002097          	auipc	x1,0x2
80000198:	e6c08093          	addi	x1,x1,-404 # 80002000 <begin_signature>
8000019c:	00000113          	addi	x2,x0,0
800001a0:	002080a3          	sb	x2,1(x1)
800001a4:	00108703          	lb	x14,1(x1)
800001a8:	00000393          	addi	x7,x0,0
800001ac:	00300193          	addi	x3,x0,3
800001b0:	3a771c63          	bne	x14,x7,80000568 <fail>

800001b4 <test_4>:
800001b4:	00002097          	auipc	x1,0x2
800001b8:	e4c08093          	addi	x1,x1,-436 # 80002000 <begin_signature>
800001bc:	fffff137          	lui	x2,0xfffff
800001c0:	fa010113          	addi	x2,x2,-96 # ffffefa0 <_end+0x7fffcf90>
800001c4:	00208123          	sb	x2,2(x1)
800001c8:	00209703          	lh	x14,2(x1)
800001cc:	fffff3b7          	lui	x7,0xfffff
800001d0:	fa038393          	addi	x7,x7,-96 # ffffefa0 <_end+0x7fffcf90>
800001d4:	00400193          	addi	x3,x0,4
800001d8:	38771863          	bne	x14,x7,80000568 <fail>

800001dc <test_5>:
800001dc:	00002097          	auipc	x1,0x2
800001e0:	e2408093          	addi	x1,x1,-476 # 80002000 <begin_signature>
800001e4:	00a00113          	addi	x2,x0,10
800001e8:	002081a3          	sb	x2,3(x1)
800001ec:	00308703          	lb	x14,3(x1)
800001f0:	00a00393          	addi	x7,x0,10
800001f4:	00500193          	addi	x3,x0,5
800001f8:	36771863          	bne	x14,x7,80000568 <fail>

800001fc <test_6>:
800001fc:	00002097          	auipc	x1,0x2
80000200:	e0b08093          	addi	x1,x1,-501 # 80002007 <tdat8>
80000204:	faa00113          	addi	x2,x0,-86
80000208:	fe208ea3          	sb	x2,-3(x1)
8000020c:	ffd08703          	lb	x14,-3(x1)
80000210:	faa00393          	addi	x7,x0,-86
80000214:	00600193          	addi	x3,x0,6
80000218:	34771863          	bne	x14,x7,80000568 <fail>

8000021c <test_7>:
8000021c:	00002097          	auipc	x1,0x2
80000220:	deb08093          	addi	x1,x1,-533 # 80002007 <tdat8>
80000224:	00000113          	addi	x2,x0,0
80000228:	fe208f23          	sb	x2,-2(x1)
8000022c:	ffe08703          	lb	x14,-2(x1)
80000230:	00000393          	addi	x7,x0,0
80000234:	00700193          	addi	x3,x0,7
80000238:	32771863          	bne	x14,x7,80000568 <fail>

8000023c <test_8>:
8000023c:	00002097          	auipc	x1,0x2
80000240:	dcb08093          	addi	x1,x1,-565 # 80002007 <tdat8>
80000244:	fa000113          	addi	x2,x0,-96
80000248:	fe208fa3          	sb	x2,-1(x1)
8000024c:	fff08703          	lb	x14,-1(x1)
80000250:	fa000393          	addi	x7,x0,-96
80000254:	00800193          	addi	x3,x0,8
80000258:	30771863          	bne	x14,x7,80000568 <fail>

8000025c <test_9>:
8000025c:	00002097          	auipc	x1,0x2
80000260:	dab08093          	addi	x1,x1,-597 # 80002007 <tdat8>
80000264:	00a00113          	addi	x2,x0,10
80000268:	00208023          	sb	x2,0(x1)
8000026c:	00008703          	lb	x14,0(x1)
80000270:	00a00393          	addi	x7,x0,10
80000274:	00900193          	addi	x3,x0,9
80000278:	2e771863          	bne	x14,x7,80000568 <fail>

8000027c <test_10>:
8000027c:	00002097          	auipc	x1,0x2
80000280:	d8c08093          	addi	x1,x1,-628 # 80002008 <tdat9>
80000284:	12345137          	lui	x2,0x12345
80000288:	67810113          	addi	x2,x2,1656 # 12345678 <_start-0x6dcba988>
8000028c:	fe008213          	addi	x4,x1,-32
80000290:	02220023          	sb	x2,32(x4) # 20 <_start-0x7fffffe0>
80000294:	00008283          	lb	x5,0(x1)
80000298:	07800393          	addi	x7,x0,120
8000029c:	00a00193          	addi	x3,x0,10
800002a0:	2c729463          	bne	x5,x7,80000568 <fail>

800002a4 <test_11>:
800002a4:	00002097          	auipc	x1,0x2
800002a8:	d6408093          	addi	x1,x1,-668 # 80002008 <tdat9>
800002ac:	00003137          	lui	x2,0x3
800002b0:	09810113          	addi	x2,x2,152 # 3098 <_start-0x7fffcf68>
800002b4:	ffa08093          	addi	x1,x1,-6
800002b8:	002083a3          	sb	x2,7(x1)
800002bc:	00002217          	auipc	x4,0x2
800002c0:	d4d20213          	addi	x4,x4,-691 # 80002009 <tdat10>
800002c4:	00020283          	lb	x5,0(x4) # 0 <_start-0x80000000>
800002c8:	f9800393          	addi	x7,x0,-104
800002cc:	00b00193          	addi	x3,x0,11
800002d0:	28729c63          	bne	x5,x7,80000568 <fail>

800002d4 <test_12>:
800002d4:	00c00193          	addi	x3,x0,12
800002d8:	00000213          	addi	x4,x0,0
800002dc:	fdd00093          	addi	x1,x0,-35
800002e0:	00002117          	auipc	x2,0x2
800002e4:	d2010113          	addi	x2,x2,-736 # 80002000 <begin_signature>
800002e8:	00110023          	sb	x1,0(x2)
800002ec:	00010703          	lb	x14,0(x2)
800002f0:	fdd00393          	addi	x7,x0,-35
800002f4:	26771a63          	bne	x14,x7,80000568 <fail>
800002f8:	00120213          	addi	x4,x4,1 # 1 <_start-0x7fffffff>
800002fc:	00200293          	addi	x5,x0,2
80000300:	fc521ee3          	bne	x4,x5,800002dc <test_12+0x8>

80000304 <test_13>:
80000304:	00d00193          	addi	x3,x0,13
80000308:	00000213          	addi	x4,x0,0
8000030c:	fcd00093          	addi	x1,x0,-51
80000310:	00002117          	auipc	x2,0x2
80000314:	cf010113          	addi	x2,x2,-784 # 80002000 <begin_signature>
80000318:	00000013          	addi	x0,x0,0
8000031c:	001100a3          	sb	x1,1(x2)
80000320:	00110703          	lb	x14,1(x2)
80000324:	fcd00393          	addi	x7,x0,-51
80000328:	24771063          	bne	x14,x7,80000568 <fail>
8000032c:	00120213          	addi	x4,x4,1 # 1 <_start-0x7fffffff>
80000330:	00200293          	addi	x5,x0,2
80000334:	fc521ce3          	bne	x4,x5,8000030c <test_13+0x8>

80000338 <test_14>:
80000338:	00e00193          	addi	x3,x0,14
8000033c:	00000213          	addi	x4,x0,0
80000340:	fcc00093          	addi	x1,x0,-52
80000344:	00002117          	auipc	x2,0x2
80000348:	cbc10113          	addi	x2,x2,-836 # 80002000 <begin_signature>
8000034c:	00000013          	addi	x0,x0,0
80000350:	00000013          	addi	x0,x0,0
80000354:	00110123          	sb	x1,2(x2)
80000358:	00210703          	lb	x14,2(x2)
8000035c:	fcc00393          	addi	x7,x0,-52
80000360:	20771463          	bne	x14,x7,80000568 <fail>
80000364:	00120213          	addi	x4,x4,1 # 1 <_start-0x7fffffff>
80000368:	00200293          	addi	x5,x0,2
8000036c:	fc521ae3          	bne	x4,x5,80000340 <test_14+0x8>

80000370 <test_15>:
80000370:	00f00193          	addi	x3,x0,15
80000374:	00000213          	addi	x4,x0,0
80000378:	fbc00093          	addi	x1,x0,-68
8000037c:	00000013          	addi	x0,x0,0
80000380:	00002117          	auipc	x2,0x2
80000384:	c8010113          	addi	x2,x2,-896 # 80002000 <begin_signature>
80000388:	001101a3          	sb	x1,3(x2)
8000038c:	00310703          	lb	x14,3(x2)
80000390:	fbc00393          	addi	x7,x0,-68
80000394:	1c771a63          	bne	x14,x7,80000568 <fail>
80000398:	00120213          	addi	x4,x4,1 # 1 <_start-0x7fffffff>
8000039c:	00200293          	addi	x5,x0,2
800003a0:	fc521ce3          	bne	x4,x5,80000378 <test_15+0x8>

800003a4 <test_16>:
800003a4:	01000193          	addi	x3,x0,16
800003a8:	00000213          	addi	x4,x0,0
800003ac:	fbb00093          	addi	x1,x0,-69
800003b0:	00000013          	addi	x0,x0,0
800003b4:	00002117          	auipc	x2,0x2
800003b8:	c4c10113          	addi	x2,x2,-948 # 80002000 <begin_signature>
800003bc:	00000013          	addi	x0,x0,0
800003c0:	00110223          	sb	x1,4(x2)
800003c4:	00410703          	lb	x14,4(x2)
800003c8:	fbb00393          	addi	x7,x0,-69
800003cc:	18771e63          	bne	x14,x7,80000568 <fail>
800003d0:	00120213          	addi	x4,x4,1 # 1 <_start-0x7fffffff>
800003d4:	00200293          	addi	x5,x0,2
800003d8:	fc521ae3          	bne	x4,x5,800003ac <test_16+0x8>

800003dc <test_17>:
800003dc:	01100193          	addi	x3,x0,17
800003e0:	00000213          	addi	x4,x0,0
800003e4:	fab00093          	addi	x1,x0,-85
800003e8:	00000013          	addi	x0,x0,0
800003ec:	00000013          	addi	x0,x0,0
800003f0:	00002117          	auipc	x2,0x2
800003f4:	c1010113          	addi	x2,x2,-1008 # 80002000 <begin_signature>
800003f8:	001102a3          	sb	x1,5(x2)
800003fc:	00510703          	lb	x14,5(x2)
80000400:	fab00393          	addi	x7,x0,-85
80000404:	16771263          	bne	x14,x7,80000568 <fail>
80000408:	00120213          	addi	x4,x4,1 # 1 <_start-0x7fffffff>
8000040c:	00200293          	addi	x5,x0,2
80000410:	fc521ae3          	bne	x4,x5,800003e4 <test_17+0x8>

80000414 <test_18>:
80000414:	01200193          	addi	x3,x0,18
80000418:	00000213          	addi	x4,x0,0
8000041c:	00002117          	auipc	x2,0x2
80000420:	be410113          	addi	x2,x2,-1052 # 80002000 <begin_signature>
80000424:	03300093          	addi	x1,x0,51
80000428:	00110023          	sb	x1,0(x2)
8000042c:	00010703          	lb	x14,0(x2)
80000430:	03300393          	addi	x7,x0,51
80000434:	12771a63          	bne	x14,x7,80000568 <fail>
80000438:	00120213          	addi	x4,x4,1 # 1 <_start-0x7fffffff>
8000043c:	00200293          	addi	x5,x0,2
80000440:	fc521ee3          	bne	x4,x5,8000041c <test_18+0x8>

80000444 <test_19>:
80000444:	01300193          	addi	x3,x0,19
80000448:	00000213          	addi	x4,x0,0
8000044c:	00002117          	auipc	x2,0x2
80000450:	bb410113          	addi	x2,x2,-1100 # 80002000 <begin_signature>
80000454:	02300093          	addi	x1,x0,35
80000458:	00000013          	addi	x0,x0,0
8000045c:	001100a3          	sb	x1,1(x2)
80000460:	00110703          	lb	x14,1(x2)
80000464:	02300393          	addi	x7,x0,35
80000468:	10771063          	bne	x14,x7,80000568 <fail>
8000046c:	00120213          	addi	x4,x4,1 # 1 <_start-0x7fffffff>
80000470:	00200293          	addi	x5,x0,2
80000474:	fc521ce3          	bne	x4,x5,8000044c <test_19+0x8>

80000478 <test_20>:
80000478:	01400193          	addi	x3,x0,20
8000047c:	00000213          	addi	x4,x0,0
80000480:	00002117          	auipc	x2,0x2
80000484:	b8010113          	addi	x2,x2,-1152 # 80002000 <begin_signature>
80000488:	02200093          	addi	x1,x0,34
8000048c:	00000013          	addi	x0,x0,0
80000490:	00000013          	addi	x0,x0,0
80000494:	00110123          	sb	x1,2(x2)
80000498:	00210703          	lb	x14,2(x2)
8000049c:	02200393          	addi	x7,x0,34
800004a0:	0c771463          	bne	x14,x7,80000568 <fail>
800004a4:	00120213          	addi	x4,x4,1 # 1 <_start-0x7fffffff>
800004a8:	00200293          	addi	x5,x0,2
800004ac:	fc521ae3          	bne	x4,x5,80000480 <test_20+0x8>

800004b0 <test_21>:
800004b0:	01500193          	addi	x3,x0,21
800004b4:	00000213          	addi	x4,x0,0
800004b8:	00002117          	auipc	x2,0x2
800004bc:	b4810113          	addi	x2,x2,-1208 # 80002000 <begin_signature>
800004c0:	00000013          	addi	x0,x0,0
800004c4:	01200093          	addi	x1,x0,18
800004c8:	001101a3          	sb	x1,3(x2)
800004cc:	00310703          	lb	x14,3(x2)
800004d0:	01200393          	addi	x7,x0,18
800004d4:	08771a63          	bne	x14,x7,80000568 <fail>
800004d8:	00120213          	addi	x4,x4,1 # 1 <_start-0x7fffffff>
800004dc:	00200293          	addi	x5,x0,2
800004e0:	fc521ce3          	bne	x4,x5,800004b8 <test_21+0x8>

800004e4 <test_22>:
800004e4:	01600193          	addi	x3,x0,22
800004e8:	00000213          	addi	x4,x0,0
800004ec:	00002117          	auipc	x2,0x2
800004f0:	b1410113          	addi	x2,x2,-1260 # 80002000 <begin_signature>
800004f4:	00000013          	addi	x0,x0,0
800004f8:	01100093          	addi	x1,x0,17
800004fc:	00000013          	addi	x0,x0,0
80000500:	00110223          	sb	x1,4(x2)
80000504:	00410703          	lb	x14,4(x2)
80000508:	01100393          	addi	x7,x0,17
8000050c:	04771e63          	bne	x14,x7,80000568 <fail>
80000510:	00120213          	addi	x4,x4,1 # 1 <_start-0x7fffffff>
80000514:	00200293          	addi	x5,x0,2
80000518:	fc521ae3          	bne	x4,x5,800004ec <test_22+0x8>

8000051c <test_23>:
8000051c:	01700193          	addi	x3,x0,23
80000520:	00000213          	addi	x4,x0,0
80000524:	00002117          	auipc	x2,0x2
80000528:	adc10113          	addi	x2,x2,-1316 # 80002000 <begin_signature>
8000052c:	00000013          	addi	x0,x0,0
80000530:	00000013          	addi	x0,x0,0
80000534:	00100093          	addi	x1,x0,1
80000538:	001102a3          	sb	x1,5(x2)
8000053c:	00510703          	lb	x14,5(x2)
80000540:	00100393          	addi	x7,x0,1
80000544:	02771263          	bne	x14,x7,80000568 <fail>
80000548:	00120213          	addi	x4,x4,1 # 1 <_start-0x7fffffff>
8000054c:	00200293          	addi	x5,x0,2
80000550:	fc521ae3          	bne	x4,x5,80000524 <test_23+0x8>
80000554:	0ef00513          	addi	x10,x0,239
80000558:	00002597          	auipc	x11,0x2
8000055c:	aa858593          	addi	x11,x11,-1368 # 80002000 <begin_signature>
80000560:	00a581a3          	sb	x10,3(x11)
80000564:	02301063          	bne	x0,x3,80000584 <pass>

80000568 <fail>:
80000568:	0ff0000f          	fence	iorw,iorw
8000056c:	00018063          	beq	x3,x0,8000056c <fail+0x4>
80000570:	00119193          	slli	x3,x3,0x1
80000574:	0011e193          	ori	x3,x3,1
80000578:	05d00893          	addi	x17,x0,93
8000057c:	00018513          	addi	x10,x3,0
80000580:	00000073          	ecall

80000584 <pass>:
80000584:	0ff0000f          	fence	iorw,iorw
80000588:	00100193          	addi	x3,x0,1
8000058c:	05d00893          	addi	x17,x0,93
80000590:	00000513          	addi	x10,x0,0
80000594:	00000073          	ecall
80000598:	c0001073          	unimp
	...

Disassembly of section .tohost:

80001000 <tohost>:
	...

80001040 <fromhost>:
	...

Disassembly of section .data:

80002000 <begin_signature>:
80002000:	          	jal	x31,800006fe <pass+0x17a>

80002001 <tdat2>:
80002001:	          	jal	x31,800006ff <pass+0x17b>

80002002 <tdat3>:
80002002:	          	jal	x31,80000700 <pass+0x17c>

80002003 <tdat4>:
80002003:	          	jal	x31,80000701 <pass+0x17d>

80002004 <tdat5>:
80002004:	          	jal	x31,80000702 <pass+0x17e>

80002005 <tdat6>:
80002005:	          	jal	x31,80000703 <pass+0x17f>

80002006 <tdat7>:
80002006:	          	jal	x31,80000704 <pass+0x180>

80002007 <tdat8>:
80002007:	          	jal	x31,80100015 <_end+0xfe005>

80002008 <tdat9>:
80002008:	          	jal	x31,80010008 <_end+0xdff8>

80002009 <tdat10>:
80002009:	000000ef          	jal	x1,80002009 <tdat10>
8000200d:	0000                	c.unimp
	...

Disassembly of section .riscv.attributes:

00000000 <.riscv.attributes>:
   0:	3141                	c.jal	fffffc80 <_end+0x7fffdc70>
   2:	0000                	c.unimp
   4:	7200                	c.flw	f8,32(x12)
   6:	7369                	c.lui	x6,0xffffa
   8:	01007663          	bgeu	x0,x16,14 <_start-0x7fffffec>
   c:	00000027          	0x27
  10:	7205                	c.lui	x4,0xfffe1
  12:	3376                	c.fldsp	f6,376(x2)
  14:	6932                	c.flwsp	f18,12(x2)
  16:	7032                	c.flwsp	f0,44(x2)
  18:	5f30                	c.lw	x12,120(x14)
  1a:	326d                	c.jal	fffff9c4 <_end+0x7fffd9b4>
  1c:	3070                	c.fld	f12,224(x8)
  1e:	615f 7032 5f30      	0x5f307032615f
  24:	3266                	c.fldsp	f4,120(x2)
  26:	3070                	c.fld	f12,224(x8)
  28:	645f 7032 0030      	0x307032645f
  2e:	0108                	c.addi4spn	x10,x2,128
  30:	0b0a                	c.slli	x22,0x2
